target datalayout = "e-m:e-p270:32:32-p271:32:32-p272:64:64-i64:64-i128:128-f80:128-n8:16:32:64-S128"
target triple = "x86_64-unknown-linux-gnu"

%"class.QuantLib::Observer" = type { ptr, %"class.std::set" }
%"class.std::set" = type { %"class.std::_Rb_tree" }
%"class.std::_Rb_tree" = type { %"struct.std::_Rb_tree<boost::shared_ptr<QuantLib::Observable>, boost::shared_ptr<QuantLib::Observable>, std::_Identity<boost::shared_ptr<QuantLib::Observable>>, std::less<boost::shared_ptr<QuantLib::Observable>>>::_Rb_tree_impl" }
%"struct.std::_Rb_tree<boost::shared_ptr<QuantLib::Observable>, boost::shared_ptr<QuantLib::Observable>, std::_Identity<boost::shared_ptr<QuantLib::Observable>>, std::less<boost::shared_ptr<QuantLib::Observable>>>::_Rb_tree_impl" = type { [8 x i8], %"struct.std::_Rb_tree_header" }
%"struct.std::_Rb_tree_header" = type { %"struct.std::_Rb_tree_node_base", i64 }
%"struct.std::_Rb_tree_node_base" = type { i32, ptr, ptr, ptr }
%"class.QuantLib::Observable" = type { ptr, %"class.std::set.0" }
%"class.std::set.0" = type { %"class.std::_Rb_tree.1" }
%"class.std::_Rb_tree.1" = type { %"struct.std::_Rb_tree<QuantLib::Observer *, QuantLib::Observer *, std::_Identity<QuantLib::Observer *>, std::less<QuantLib::Observer *>>::_Rb_tree_impl" }
%"struct.std::_Rb_tree<QuantLib::Observer *, QuantLib::Observer *, std::_Identity<QuantLib::Observer *>, std::less<QuantLib::Observer *>>::_Rb_tree_impl" = type { [8 x i8], %"struct.std::_Rb_tree_header" }
%"class.QuantLib::LazyObject::UpdateChecker" = type { ptr }
%"class.QuantLib::LazyObject" = type <{ ptr, i8, i8, i8, i8, [4 x i8], %"class.QuantLib::Observable", %"class.QuantLib::Observer" }>

; Function Attrs: mustprogress nounwind uwtable
define linkonce_odr void @_ZN8QuantLib10LazyObject13UpdateCheckerD2Ev(ptr noundef nonnull align 8 dereferenceable(8) %this) unnamed_addr #4 comdat align 2 {
entry:
  %this.addr = alloca ptr, align 8
  store ptr %this, ptr %this.addr, align 8, !tbaa !3
  %this1 = load ptr, ptr %this.addr, align 8
  %subject_ = getelementptr inbounds nuw %"class.QuantLib::LazyObject::UpdateChecker", ptr %this1, i32 0, i32 0
  %0 = load ptr, ptr %subject_, align 8, !tbaa !30
  %updating_ = getelementptr inbounds nuw %"class.QuantLib::LazyObject", ptr %0, i32 0, i32 4
  store i8 0, ptr %updating_, align 1, !tbaa !23
  ret void
}

; Function Attrs: mustprogress nounwind uwtable
define linkonce_odr void @_ZN8QuantLib10LazyObject13UpdateCheckerC2EPS0_(ptr noundef nonnull align 8 dereferenceable(8) %this, ptr noundef %subject) unnamed_addr #4 comdat align 2 {
entry:
  %this.addr = alloca ptr, align 8
  %subject.addr = alloca ptr, align 8
  store ptr %this, ptr %this.addr, align 8, !tbaa !3
  store ptr %subject, ptr %subject.addr, align 8, !tbaa !3
  %this1 = load ptr, ptr %this.addr, align 8
  %subject_ = getelementptr inbounds nuw %"class.QuantLib::LazyObject::UpdateChecker", ptr %this1, i32 0, i32 0
  %0 = load ptr, ptr %subject.addr, align 8, !tbaa !3
  store ptr %0, ptr %subject_, align 8, !tbaa !30
  %subject_2 = getelementptr inbounds nuw %"class.QuantLib::LazyObject::UpdateChecker", ptr %this1, i32 0, i32 0
  %1 = load ptr, ptr %subject_2, align 8, !tbaa !30
  %updating_ = getelementptr inbounds nuw %"class.QuantLib::LazyObject", ptr %1, i32 0, i32 4
  store i8 1, ptr %updating_, align 1, !tbaa !23
  ret void
}

; Function Attrs: inlinehint mustprogress uwtable
define linkonce_odr void @_ZN8QuantLib10LazyObject6updateEv(ptr noundef nonnull align 8 dereferenceable(12) %this) unnamed_addr #6 comdat align 2 personality ptr @__gxx_personality_v0 {
entry:
  %this.addr = alloca ptr, align 8
  %checker = alloca %"class.QuantLib::LazyObject::UpdateChecker", align 8
  %exn.slot = alloca ptr, align 8
  %ehselector.slot = alloca i32, align 4
  store ptr %this, ptr %this.addr, align 8, !tbaa !3
  %this1 = load ptr, ptr %this.addr, align 8
  %updating_ = getelementptr inbounds nuw %"class.QuantLib::LazyObject", ptr %this1, i32 0, i32 4
  %0 = load i8, ptr %updating_, align 1, !tbaa !23, !range !25, !noundef !26
  %loadedv = trunc i8 %0 to i1
  br i1 %loadedv, label %if.then, label %if.end

if.then:                                          ; preds = %entry
  br label %return

if.end:                                           ; preds = %entry
  call void @llvm.lifetime.start.p0(i64 8, ptr %checker) #22
  call void @_ZN8QuantLib10LazyObject13UpdateCheckerC2EPS0_(ptr noundef nonnull align 8 dereferenceable(8) %checker, ptr noundef %this1)
  %calculated_ = getelementptr inbounds nuw %"class.QuantLib::LazyObject", ptr %this1, i32 0, i32 1
  %1 = load i8, ptr %calculated_, align 8, !tbaa !27, !range !25, !noundef !26
  %loadedv2 = trunc i8 %1 to i1
  br i1 %loadedv2, label %if.then4, label %lor.lhs.false

lor.lhs.false:                                    ; preds = %if.end
  %alwaysForward_ = getelementptr inbounds nuw %"class.QuantLib::LazyObject", ptr %this1, i32 0, i32 3
  %2 = load i8, ptr %alwaysForward_, align 2, !tbaa !28, !range !25, !noundef !26
  %loadedv3 = trunc i8 %2 to i1
  br i1 %loadedv3, label %if.then4, label %if.end9

if.then4:                                         ; preds = %lor.lhs.false, %if.end
  %calculated_5 = getelementptr inbounds nuw %"class.QuantLib::LazyObject", ptr %this1, i32 0, i32 1
  store i8 0, ptr %calculated_5, align 8, !tbaa !27
  %frozen_ = getelementptr inbounds nuw %"class.QuantLib::LazyObject", ptr %this1, i32 0, i32 2
  %3 = load i8, ptr %frozen_, align 1, !tbaa !29, !range !25, !noundef !26
  %loadedv6 = trunc i8 %3 to i1
  br i1 %loadedv6, label %if.end8, label %if.then7

if.then7:                                         ; preds = %if.then4
  %vtable = load ptr, ptr %this1, align 8, !tbaa !21
  %vbase.offset.ptr = getelementptr i8, ptr %vtable, i64 -24
  %vbase.offset = load i64, ptr %vbase.offset.ptr, align 8
  %add.ptr = getelementptr inbounds i8, ptr %this1, i64 %vbase.offset
  invoke void @_ZN8QuantLib10Observable15notifyObserversEv(ptr noundef nonnull align 8 dereferenceable(56) %add.ptr)
          to label %invoke.cont unwind label %lpad

invoke.cont:                                      ; preds = %if.then7
  br label %if.end8

lpad:                                             ; preds = %if.then7
  %4 = landingpad { ptr, i32 }
          cleanup
  %5 = extractvalue { ptr, i32 } %4, 0
  store ptr %5, ptr %exn.slot, align 8
  %6 = extractvalue { ptr, i32 } %4, 1
  store i32 %6, ptr %ehselector.slot, align 4
  call void @_ZN8QuantLib10LazyObject13UpdateCheckerD2Ev(ptr noundef nonnull align 8 dereferenceable(8) %checker) #22
  call void @llvm.lifetime.end.p0(i64 8, ptr %checker) #22
  br label %eh.resume

if.end8:                                          ; preds = %invoke.cont, %if.then4
  br label %if.end9

if.end9:                                          ; preds = %if.end8, %lor.lhs.false
  call void @_ZN8QuantLib10LazyObject13UpdateCheckerD2Ev(ptr noundef nonnull align 8 dereferenceable(8) %checker) #22
  call void @llvm.lifetime.end.p0(i64 8, ptr %checker) #22
  br label %return

return:                                           ; preds = %if.end9, %if.then
  ret void

eh.resume:                                        ; preds = %lpad
  %exn = load ptr, ptr %exn.slot, align 8
  %sel = load i32, ptr %ehselector.slot, align 4
  %lpad.val = insertvalue { ptr, i32 } poison, ptr %exn, 0
  %lpad.val10 = insertvalue { ptr, i32 } %lpad.val, i32 %sel, 1
  resume { ptr, i32 } %lpad.val10
}

; Function Attrs: mustprogress uwtable
define void @_ZN8QuantLib26SwaptionVolatilityDiscrete6updateEv(ptr noundef nonnull align 8 dereferenceable(336) %this) unnamed_addr #9 align 2 {
entry:
  %this.addr = alloca ptr, align 8
  store ptr %this, ptr %this.addr, align 8, !tbaa !3
  %this1 = load ptr, ptr %this.addr, align 8
  %add.ptr = getelementptr inbounds i8, ptr %this1, i64 16
  call void @_ZN8QuantLib13TermStructure6updateEv(ptr noundef nonnull align 8 dereferenceable(64) %add.ptr)
  call void @_ZN8QuantLib10LazyObject6updateEv(ptr noundef nonnull align 8 dereferenceable(12) %this1)
  ret void
}