; Function Attrs: mustprogress uwtable
define void @_ZN8QuantLib26SwaptionVolatilityDiscrete6updateEv(ptr noundef nonnull align 8 dereferenceable(336) %this) unnamed_addr #8 align 2 personality ptr @__gxx_personality_v0 {
entry:
  %add.ptr = getelementptr inbounds i8, ptr %this, i64 16
  tail call void @_ZN8QuantLib13TermStructure6updateEv(ptr noundef nonnull align 8 dereferenceable(64) %add.ptr)
  %updating_.i = getelementptr inbounds nuw i8, ptr %this, i64 11
  %0 = load i8, ptr %updating_.i, align 1, !tbaa !24, !range !26, !noundef !27
  %loadedv.i = trunc nuw i8 %0 to i1
  br i1 %loadedv.i, label %_ZN8QuantLib10LazyObject6updateEv.exit, label %if.end.i

if.end.i:                                         ; preds = %entry
  store i8 1, ptr %updating_.i, align 1, !tbaa !24
  %calculated_.i = getelementptr inbounds nuw i8, ptr %this, i64 8
  %1 = load i8, ptr %calculated_.i, align 8, !tbaa !28, !range !26, !noundef !27
  %loadedv2.i = trunc nuw i8 %1 to i1
  br i1 %loadedv2.i, label %if.then4.i, label %lor.lhs.false.i

lor.lhs.false.i:                                  ; preds = %if.end.i
  %alwaysForward_.i = getelementptr inbounds nuw i8, ptr %this, i64 10
  %2 = load i8, ptr %alwaysForward_.i, align 2, !tbaa !29, !range !26, !noundef !27
  %loadedv3.i = trunc nuw i8 %2 to i1
  br i1 %loadedv3.i, label %if.then4.i, label %if.end9.i

if.then4.i:                                       ; preds = %lor.lhs.false.i, %if.end.i
  store i8 0, ptr %calculated_.i, align 8, !tbaa !28
  %frozen_.i = getelementptr inbounds nuw i8, ptr %this, i64 9
  %3 = load i8, ptr %frozen_.i, align 1, !tbaa !30, !range !26, !noundef !27
  %loadedv6.i = trunc nuw i8 %3 to i1
  br i1 %loadedv6.i, label %if.end9.i, label %if.then7.i

if.then7.i:                                       ; preds = %if.then4.i
  %vtable.i = load ptr, ptr %this, align 8, !tbaa !22
  %vbase.offset.ptr.i = getelementptr i8, ptr %vtable.i, i64 -24
  %vbase.offset.i = load i64, ptr %vbase.offset.ptr.i, align 8
  %add.ptr.i = getelementptr inbounds i8, ptr %this, i64 %vbase.offset.i
  invoke void @_ZN8QuantLib10Observable15notifyObserversEv(ptr noundef nonnull align 8 dereferenceable(56) %add.ptr.i)
          to label %if.end9.i unwind label %lpad.i

lpad.i:                                           ; preds = %if.then7.i
  %4 = landingpad { ptr, i32 }
          cleanup
  store i8 0, ptr %updating_.i, align 1, !tbaa !24
  resume { ptr, i32 } %4

if.end9.i:                                        ; preds = %if.then7.i, %if.then4.i, %lor.lhs.false.i
  store i8 0, ptr %updating_.i, align 1, !tbaa !24
  br label %_ZN8QuantLib10LazyObject6updateEv.exit

_ZN8QuantLib10LazyObject6updateEv.exit:           ; preds = %entry, %if.end9.i
  ret void
}